target datalayout = "e-m:e-p270:32:32-p271:32:32-p272:64:64-i64:64-i128:128-f80:128-n8:16:32:64-S128"
target triple = "x86_64-pc-linux-gnu"

@hf_h248_serviceChangeReasonStr = internal global i32 0, align 4

; Function Attrs: nounwind uwtable
define internal i32 @dissect_h248_ServiceChangeReasonStr(i1 noundef zeroext %0, ptr noundef %1, i32 noundef %2, ptr noundef %3, ptr noundef %4, i32 noundef %5) #0 {
  %7 = alloca i8, align 1
  %8 = alloca ptr, align 8
  %9 = alloca i32, align 4
  %10 = alloca ptr, align 8
  %11 = alloca ptr, align 8
  %12 = alloca i32, align 4
  %13 = zext i1 %0 to i8
  store i8 %13, ptr %7, align 1
  store ptr %1, ptr %8, align 8
  store i32 %2, ptr %9, align 4
  store ptr %3, ptr %10, align 8
  store ptr %4, ptr %11, align 8
  store i32 %5, ptr %12, align 4
  %14 = load i8, ptr %7, align 1
  %15 = trunc i8 %14 to i1
  %16 = load ptr, ptr %10, align 8
  %17 = load ptr, ptr %11, align 8
  %18 = load ptr, ptr %8, align 8
  %19 = load i32, ptr %9, align 4
  %20 = load i32, ptr %12, align 4
  %21 = call i32 @dissect_ber_restricted_string(i1 noundef zeroext %15, i32 noundef 22, ptr noundef %16, ptr noundef %17, ptr noundef %18, i32 noundef %19, i32 noundef %20, ptr noundef null)
  store i32 %21, ptr %9, align 4
  %22 = load i32, ptr %9, align 4
  ret i32 %22
}

; Function Attrs: nounwind uwtable
define internal i32 @dissect_h248_SCreasonValueOctetStr(i1 noundef zeroext %0, ptr noundef %1, i32 noundef %2, ptr noundef %3, ptr noundef %4, i32 noundef %5) #0 {
  %7 = alloca i32, align 4
  %8 = alloca i8, align 1
  %9 = alloca ptr, align 8
  %10 = alloca i32, align 4
  %11 = alloca ptr, align 8
  %12 = alloca ptr, align 8
  %13 = alloca i32, align 4
  %14 = alloca ptr, align 8
  %15 = zext i1 %0 to i8
  store i8 %15, ptr %8, align 1
  store ptr %1, ptr %9, align 8
  store i32 %2, ptr %10, align 4
  store ptr %3, ptr %11, align 8
  store ptr %4, ptr %12, align 8
  store i32 %5, ptr %13, align 4
  %16 = load i8, ptr %8, align 1
  %17 = trunc i8 %16 to i1
  %18 = load ptr, ptr %11, align 8
  %19 = load ptr, ptr %12, align 8
  %20 = load ptr, ptr %9, align 8
  %21 = load i32, ptr %10, align 4
  %22 = load i32, ptr %13, align 4
  %23 = call i32 @dissect_ber_octet_string(i1 noundef zeroext %17, ptr noundef %18, ptr noundef %19, ptr noundef %20, i32 noundef %21, i32 noundef %22, ptr noundef %14)
  store i32 %23, ptr %10, align 4
  %24 = load ptr, ptr %14, align 8
  %25 = icmp ne ptr %24, null
  br i1 %25, label %28, label %26

26:                                               ; preds = %6
  %27 = load i32, ptr %10, align 4
  store i32 %27, ptr %7, align 4
  br label %35

28:                                               ; preds = %6
  %29 = load ptr, ptr %14, align 8
  %30 = load ptr, ptr %11, align 8
  %31 = load ptr, ptr %12, align 8
  %32 = load i32, ptr @hf_h248_serviceChangeReasonStr, align 4
  %33 = call i32 @dissect_h248_ServiceChangeReasonStr(i1 noundef zeroext false, ptr noundef %29, i32 noundef 0, ptr noundef %30, ptr noundef %31, i32 noundef %32)
  %34 = load i32, ptr %10, align 4
  store i32 %34, ptr %7, align 4
  br label %35

35:                                               ; preds = %28, %26
  %36 = load i32, ptr %7, align 4
  ret i32 %36
}