; Function Attrs: nounwind uwtable
define internal i32 @dissect_h248_SCreasonValueOctetStr(i1 noundef zeroext %0, ptr noundef %1, i32 noundef %2, ptr noundef %3, ptr noundef %4, i32 noundef %5) #0 {
  %7 = alloca ptr, align 8
  %8 = call i32 @dissect_ber_octet_string(i1 noundef zeroext %0, ptr noundef %3, ptr noundef %4, ptr noundef %1, i32 noundef %2, i32 noundef %5, ptr noundef nonnull %7) #7
  %9 = load ptr, ptr %7, align 8
  %.not = icmp eq ptr %9, null
  br i1 %.not, label %13, label %10

10:                                               ; preds = %6
  %11 = load i32, ptr @hf_h248_serviceChangeReasonStr, align 4
  %12 = call i32 @dissect_ber_restricted_string(i1 noundef zeroext false, i32 noundef 22, ptr noundef %3, ptr noundef %4, ptr noundef nonnull %9, i32 noundef 0, i32 noundef %11, ptr noundef null) #7
  br label %13

13:                                               ; preds = %6, %10
  ret i32 %8
}